target datalayout = "e-m:e-p270:32:32-p271:32:32-p272:64:64-i64:64-i128:128-f80:128-n8:16:32:64-S128"
target triple = "x86_64-pc-linux-gnu"

%class.QString = type { ptr }

@.str.42 = private unnamed_addr constant [79 x i8] c"Delete isolated connected components composed by a limited number of triangles\00", align 1
@.str.43 = private unnamed_addr constant [91 x i8] c"Delete isolated connected components whose diameter is smaller than the specified constant\00", align 1
@.str.44 = private unnamed_addr constant [81 x i8] c"Delete all the vertices with a quality lower smaller than the specified constant\00", align 1
@.str.45 = private unnamed_addr constant [201 x i8] c"Delete t-vertices from the mesh by edge collapse (collapsing the shortest of the incident edges) or edge flip (flipping the opposite edge on the degenerate face if the triangulation quality improves).\00", align 1
@.str.47 = private unnamed_addr constant [136 x i8] c"Merge together all the vertices that are nearer than the specified threshold. Like a unify duplicated vertices but with some tolerance.\00", align 1
@.str.48 = private unnamed_addr constant [175 x i8] c"Merge together per-wedge texture coords that are very close. Used to correct apparent texture seams that can arise from numerical approximations when saving in ascii formats.\00", align 1
@.str.49 = private unnamed_addr constant [154 x i8] c"Delete all the duplicate faces. Two faces are considered equal if they are composed by the same set of vertices, regardless of the order of the vertices.\00", align 1
@.str.51 = private unnamed_addr constant [226 x i8] c"Remove non-manifold edges by removing faces (for each non Manifold edge it iteratively deletes the smallest area face until it becomes 2-Manifold) or by splitting vertices (each non manifold edges chain will become a border).\00", align 1
@.str.52 = private unnamed_addr constant [57 x i8] c"Split non Manifold vertices until it becomes 2-Manifold.\00", align 1
@.str.53 = private unnamed_addr constant [82 x i8] c"Check for every vertex on the mesh: if it is NOT referenced by a face, removes it\00", align 1
@.str.54 = private unnamed_addr constant [119 x i8] c"Check for every vertex on the mesh: if there are two vertices with same coordinates they are merged into a single one.\00", align 1
@.str.55 = private unnamed_addr constant [52 x i8] c"Remove null faces (the one with area equal to zero)\00", align 1
@.str.56 = private unnamed_addr constant [7 x i8] c"error!\00", align 1

; Function Attrs: mustprogress uwtable
define linkonce_odr void @_ZN7QStringC2EPKc(ptr noundef nonnull align 8 dereferenceable(8) %0, ptr noundef %1) unnamed_addr #5 comdat align 2 {
  %3 = alloca ptr, align 8
  %4 = alloca ptr, align 8
  store ptr %0, ptr %3, align 8
  store ptr %1, ptr %4, align 8
  %5 = load ptr, ptr %3, align 8
  %6 = getelementptr inbounds %class.QString, ptr %5, i32 0, i32 0
  %7 = load ptr, ptr %4, align 8
  %8 = load ptr, ptr %4, align 8
  %9 = icmp ne ptr %8, null
  br i1 %9, label %10, label %14

10:                                               ; preds = %2
  %11 = load ptr, ptr %4, align 8
  %12 = call i64 @strlen(ptr noundef %11) #23
  %13 = trunc i64 %12 to i32
  br label %15

14:                                               ; preds = %2
  br label %15

15:                                               ; preds = %14, %10
  %16 = phi i32 [ %13, %10 ], [ -1, %14 ]
  %17 = call noundef ptr @_ZN7QString16fromAscii_helperEPKci(ptr noundef %7, i32 noundef %16)
  store ptr %17, ptr %6, align 8
  ret void
}

; Function Attrs: mustprogress uwtable
define void @_ZNK11CleanFilter10filterInfoEi(ptr dead_on_unwind noalias writable sret(%class.QString) align 8 %0, ptr noundef nonnull align 8 dereferenceable(80) %1, i32 noundef %2) unnamed_addr #5 align 2 {
  %4 = alloca ptr, align 8
  %5 = alloca ptr, align 8
  %6 = alloca i32, align 4
  store ptr %0, ptr %4, align 8
  store ptr %1, ptr %5, align 8
  store i32 %2, ptr %6, align 4
  %7 = load i32, ptr %6, align 4
  switch i32 %7, label %23 [
    i32 0, label %8
    i32 1, label %9
    i32 2, label %10
    i32 3, label %11
    i32 4, label %12
    i32 5, label %13
    i32 13, label %14
    i32 14, label %15
    i32 7, label %16
    i32 6, label %17
    i32 8, label %18
    i32 9, label %19
    i32 10, label %20
    i32 11, label %21
    i32 12, label %22
  ]

8:                                                ; preds = %3
  call void @_ZN7QStringC2EPKc(ptr noundef nonnull align 8 dereferenceable(8) %0, ptr noundef @.str.41)
  br label %25

9:                                                ; preds = %3
  call void @_ZN7QStringC2EPKc(ptr noundef nonnull align 8 dereferenceable(8) %0, ptr noundef @.str.42)
  br label %25

10:                                               ; preds = %3
  call void @_ZN7QStringC2EPKc(ptr noundef nonnull align 8 dereferenceable(8) %0, ptr noundef @.str.43)
  br label %25

11:                                               ; preds = %3
  call void @_ZN7QStringC2EPKc(ptr noundef nonnull align 8 dereferenceable(8) %0, ptr noundef @.str.44)
  br label %25

12:                                               ; preds = %3
  call void @_ZN7QStringC2EPKc(ptr noundef nonnull align 8 dereferenceable(8) %0, ptr noundef @.str.45)
  br label %25

13:                                               ; preds = %3
  call void @_ZN7QStringC2EPKc(ptr noundef nonnull align 8 dereferenceable(8) %0, ptr noundef @.str.46)
  br label %25

14:                                               ; preds = %3
  call void @_ZN7QStringC2EPKc(ptr noundef nonnull align 8 dereferenceable(8) %0, ptr noundef @.str.47)
  br label %25

15:                                               ; preds = %3
  call void @_ZN7QStringC2EPKc(ptr noundef nonnull align 8 dereferenceable(8) %0, ptr noundef @.str.48)
  br label %25

16:                                               ; preds = %3
  call void @_ZN7QStringC2EPKc(ptr noundef nonnull align 8 dereferenceable(8) %0, ptr noundef @.str.49)
  br label %25

17:                                               ; preds = %3
  call void @_ZN7QStringC2EPKc(ptr noundef nonnull align 8 dereferenceable(8) %0, ptr noundef @.str.50)
  br label %25

18:                                               ; preds = %3
  call void @_ZN7QStringC2EPKc(ptr noundef nonnull align 8 dereferenceable(8) %0, ptr noundef @.str.51)
  br label %25

19:                                               ; preds = %3
  call void @_ZN7QStringC2EPKc(ptr noundef nonnull align 8 dereferenceable(8) %0, ptr noundef @.str.52)
  br label %25

20:                                               ; preds = %3
  call void @_ZN7QStringC2EPKc(ptr noundef nonnull align 8 dereferenceable(8) %0, ptr noundef @.str.53)
  br label %25

21:                                               ; preds = %3
  call void @_ZN7QStringC2EPKc(ptr noundef nonnull align 8 dereferenceable(8) %0, ptr noundef @.str.54)
  br label %25

22:                                               ; preds = %3
  call void @_ZN7QStringC2EPKc(ptr noundef nonnull align 8 dereferenceable(8) %0, ptr noundef @.str.55)
  br label %25

23:                                               ; preds = %3
  br label %24

24:                                               ; preds = %23
  call void @_ZN7QStringC2EPKc(ptr noundef nonnull align 8 dereferenceable(8) %0, ptr noundef @.str.56)
  br label %25

25:                                               ; preds = %24, %22, %21, %20, %19, %18, %17, %16, %15, %14, %13, %12, %11, %10, %9, %8
  ret void
}